; Function Attrs: mustprogress uwtable
define internal fastcc noundef i64 @_ZN9grpc_core12_GLOBAL__N_118SecurityHandshaker33MoveReadBufferIntoHandshakeBufferEv(ptr noundef nonnull align 16 captures(none) dereferenceable(408) %0) unnamed_addr #3 align 2 personality ptr @__gxx_personality_v0 {
  %2 = alloca %"class.grpc_core::Slice", align 8
  %3 = getelementptr inbounds nuw i8, ptr %0, i64 48
  %4 = load ptr, ptr %3, align 16, !tbaa !76
  %5 = getelementptr inbounds nuw i8, ptr %4, i64 48
  %6 = load i64, ptr %5, align 8, !tbaa !157
  %7 = getelementptr inbounds nuw i8, ptr %0, i64 96
  %8 = load i64, ptr %7, align 16, !tbaa !79
  %9 = icmp ult i64 %8, %6
  br i1 %9, label %10, label %14

10:                                               ; preds = %1
  %11 = getelementptr inbounds nuw i8, ptr %0, i64 104
  %12 = load ptr, ptr %11, align 8, !tbaa !80
  %13 = tail call ptr @gpr_realloc(ptr noundef %12, i64 noundef %6)
  store ptr %13, ptr %11, align 8, !tbaa !80
  store i64 %6, ptr %7, align 16, !tbaa !79
  %.pre = load ptr, ptr %3, align 16, !tbaa !76
  br label %14

14:                                               ; preds = %10, %1
  %15 = phi ptr [ %.pre, %10 ], [ %4, %1 ]
  %16 = getelementptr inbounds nuw i8, ptr %15, i64 32
  %17 = load i64, ptr %16, align 8, !tbaa !158
  %.not11 = icmp eq i64 %17, 0
  br i1 %.not11, label %._crit_edge, label %.lr.ph

.lr.ph:                                           ; preds = %14
  %18 = getelementptr inbounds nuw i8, ptr %0, i64 104
  %19 = getelementptr inbounds nuw i8, ptr %2, i64 16
  %20 = getelementptr inbounds nuw i8, ptr %2, i64 9
  %21 = getelementptr inbounds nuw i8, ptr %2, i64 8
  br label %22

22:                                               ; preds = %.lr.ph, %_ZN9grpc_core5SliceD2Ev.exit
  %23 = phi ptr [ %15, %.lr.ph ], [ %48, %_ZN9grpc_core5SliceD2Ev.exit ]
  %.012 = phi i64 [ 0, %.lr.ph ], [ %37, %_ZN9grpc_core5SliceD2Ev.exit ]
  %24 = getelementptr inbounds nuw i8, ptr %23, i64 16
  call void @llvm.lifetime.start.p0(i64 32, ptr nonnull %2) #30
  call void @_ZN9grpc_core11SliceBuffer9TakeFirstEv(ptr dead_on_unwind nonnull writable sret(%"class.grpc_core::Slice") align 8 %2, ptr noundef nonnull align 8 dereferenceable(232) %24)
  %25 = load ptr, ptr %18, align 8, !tbaa !80
  %26 = load ptr, ptr %2, align 8, !tbaa !159
  %.not.i = icmp eq ptr %26, null
  %27 = load ptr, ptr %19, align 8
  %28 = select i1 %.not.i, ptr %20, ptr %27
  %29 = getelementptr inbounds nuw i8, ptr %25, i64 %.012
  %30 = load i64, ptr %21, align 8
  %31 = and i64 %30, 255
  %32 = select i1 %.not.i, i64 %31, i64 %30
  call void @llvm.memcpy.p0.p0.i64(ptr align 1 %29, ptr align 1 %28, i64 %32, i1 false)
  %33 = load ptr, ptr %2, align 8, !tbaa !159
  %.not.i10 = icmp eq ptr %33, null
  %34 = load i64, ptr %21, align 8
  %35 = and i64 %34, 255
  %36 = select i1 %.not.i10, i64 %35, i64 %34
  %37 = add i64 %36, %.012
  %38 = icmp ugt ptr %33, inttoptr (i64 1 to ptr)
  br i1 %38, label %39, label %_ZN9grpc_core5SliceD2Ev.exit

39:                                               ; preds = %22
  %40 = atomicrmw sub ptr %33, i64 1 acq_rel, align 8
  %41 = icmp eq i64 %40, 1
  br i1 %41, label %42, label %_ZN9grpc_core5SliceD2Ev.exit

42:                                               ; preds = %39
  %43 = getelementptr inbounds nuw i8, ptr %33, i64 8
  %44 = load ptr, ptr %43, align 8, !tbaa !162
  invoke void %44(ptr noundef nonnull align 8 dereferenceable(16) %33)
          to label %_ZN9grpc_core5SliceD2Ev.exit unwind label %45

45:                                               ; preds = %42
  %46 = landingpad { ptr, i32 }
          catch ptr null
  %47 = extractvalue { ptr, i32 } %46, 0
  call void @__clang_call_terminate(ptr %47) #33
  unreachable

_ZN9grpc_core5SliceD2Ev.exit:                     ; preds = %22, %39, %42
  call void @llvm.lifetime.end.p0(i64 32, ptr nonnull %2) #30
  %48 = load ptr, ptr %3, align 16, !tbaa !76
  %49 = getelementptr inbounds nuw i8, ptr %48, i64 32
  %50 = load i64, ptr %49, align 8, !tbaa !158
  %.not = icmp eq i64 %50, 0
  br i1 %.not, label %._crit_edge, label %22, !llvm.loop !166

._crit_edge:                                      ; preds = %_ZN9grpc_core5SliceD2Ev.exit, %14
  ret i64 %6
}